target datalayout = "e-m:e-p270:32:32-p271:32:32-p272:64:64-i64:64-i128:128-f80:128-n8:16:32:64-S128"
target triple = "x86_64-pc-linux-gnu"

%struct.addrinfo = type { i32, i32, i32, i32, i32, ptr, ptr, ptr }

; Function Attrs: nounwind uwtable
define i32 @BIO_ADDRINFO_protocol(ptr noundef %0) #0 {
  %2 = alloca i32, align 4
  %3 = alloca ptr, align 8
  store ptr %0, ptr %3, align 8, !tbaa !28
  %4 = load ptr, ptr %3, align 8, !tbaa !28
  %5 = icmp ne ptr %4, null
  br i1 %5, label %6, label %29

6:                                                ; preds = %1
  %7 = load ptr, ptr %3, align 8, !tbaa !28
  %8 = getelementptr inbounds nuw %struct.addrinfo, ptr %7, i32 0, i32 3
  %9 = load i32, ptr %8, align 4, !tbaa !34
  %10 = icmp ne i32 %9, 0
  br i1 %10, label %11, label %15

11:                                               ; preds = %6
  %12 = load ptr, ptr %3, align 8, !tbaa !28
  %13 = getelementptr inbounds nuw %struct.addrinfo, ptr %12, i32 0, i32 3
  %14 = load i32, ptr %13, align 4, !tbaa !34
  store i32 %14, ptr %2, align 4
  br label %30

15:                                               ; preds = %6
  %16 = load ptr, ptr %3, align 8, !tbaa !28
  %17 = getelementptr inbounds nuw %struct.addrinfo, ptr %16, i32 0, i32 1
  %18 = load i32, ptr %17, align 4, !tbaa !32
  %19 = icmp eq i32 %18, 1
  br i1 %19, label %20, label %21

20:                                               ; preds = %15
  store i32 0, ptr %2, align 4
  br label %30

21:                                               ; preds = %15
  %22 = load ptr, ptr %3, align 8, !tbaa !28
  %23 = getelementptr inbounds nuw %struct.addrinfo, ptr %22, i32 0, i32 2
  %24 = load i32, ptr %23, align 8, !tbaa !33
  switch i32 %24, label %27 [
    i32 1, label %25
    i32 2, label %26
  ]

25:                                               ; preds = %21
  store i32 6, ptr %2, align 4
  br label %30

26:                                               ; preds = %21
  store i32 17, ptr %2, align 4
  br label %30

27:                                               ; preds = %21
  br label %28

28:                                               ; preds = %27
  br label %29

29:                                               ; preds = %28, %1
  store i32 0, ptr %2, align 4
  br label %30

30:                                               ; preds = %29, %26, %25, %20, %11
  %31 = load i32, ptr %2, align 4
  ret i32 %31
}