; Function Attrs: mustprogress nofree norecurse nosync nounwind willreturn memory(argmem: read) uwtable
define i32 @BIO_ADDRINFO_protocol(ptr noundef readonly captures(address_is_null) %0) local_unnamed_addr #9 {
  %.not = icmp eq ptr %0, null
  br i1 %.not, label %12, label %2

2:                                                ; preds = %1
  %3 = getelementptr inbounds nuw i8, ptr %0, i64 12
  %4 = load i32, ptr %3, align 4, !tbaa !23
  %.not7 = icmp eq i32 %4, 0
  br i1 %.not7, label %5, label %12

5:                                                ; preds = %2
  %6 = getelementptr inbounds nuw i8, ptr %0, i64 4
  %7 = load i32, ptr %6, align 4, !tbaa !21
  %8 = icmp eq i32 %7, 1
  br i1 %8, label %12, label %9

9:                                                ; preds = %5
  %10 = getelementptr inbounds nuw i8, ptr %0, i64 8
  %11 = load i32, ptr %10, align 8, !tbaa !22
  %switch.selectcmp = icmp eq i32 %11, 2
  %switch.select = select i1 %switch.selectcmp, i32 17, i32 0
  %switch.selectcmp8 = icmp eq i32 %11, 1
  %switch.select9 = select i1 %switch.selectcmp8, i32 6, i32 %switch.select
  br label %12

12:                                               ; preds = %1, %9, %5, %2
  %.0 = phi i32 [ %4, %2 ], [ 0, %5 ], [ %switch.select9, %9 ], [ 0, %1 ]
  ret i32 %.0
}